; Function Attrs: mustprogress uwtable
define void @_ZN6icu_7714ResourceBundle18constructForLocaleERKNS_13UnicodeStringERKNS_6LocaleER10UErrorCode(ptr noundef nonnull writeonly align 8 captures(none) dereferenceable(24) %0, ptr noundef nonnull align 8 dereferenceable(64) %1, ptr noundef nonnull readonly align 8 captures(none) dereferenceable(217) %2, ptr noundef nonnull align 4 dereferenceable(4) %3) local_unnamed_addr #0 align 2 personality ptr @__gxx_personality_v0 {
  %5 = alloca i16, align 2
  %6 = alloca %"class.icu_77::UnicodeString", align 8
  %7 = getelementptr inbounds nuw i8, ptr %1, i64 8
  %8 = load i16, ptr %7, align 8, !tbaa !13
  %9 = icmp ugt i16 %8, 31
  br i1 %9, label %15, label %10

10:                                               ; preds = %4
  %11 = getelementptr inbounds nuw i8, ptr %2, i64 40
  %12 = load ptr, ptr %11, align 8, !tbaa !14
  %13 = tail call ptr @ures_open_77(ptr noundef null, ptr noundef %12, ptr noundef nonnull %3)
  %14 = getelementptr inbounds nuw i8, ptr %0, i64 8
  store ptr %13, ptr %14, align 8, !tbaa !18
  br label %35

15:                                               ; preds = %4
  call void @llvm.lifetime.start.p0(i64 64, ptr nonnull %6) #4
  call void @_ZN6icu_7713UnicodeStringC1ERKS0_(ptr noundef nonnull align 8 dereferenceable(64) %6, ptr noundef nonnull align 8 dereferenceable(64) %1)
  call void @llvm.lifetime.start.p0(i64 2, ptr nonnull %5)
  store i16 0, ptr %5, align 2, !tbaa !19
  %16 = invoke noundef nonnull align 8 dereferenceable(64) ptr @_ZN6icu_7713UnicodeString8doAppendEPKDsii(ptr noundef nonnull align 8 dereferenceable(64) %6, ptr noundef nonnull %5, i32 noundef 0, i32 noundef 1)
          to label %17 unwind label %33

17:                                               ; preds = %15
  call void @llvm.lifetime.end.p0(i64 2, ptr nonnull %5)
  %18 = getelementptr inbounds nuw i8, ptr %6, i64 8
  %19 = load i16, ptr %18, align 8, !tbaa !13
  %20 = and i16 %19, 17
  %.not.i = icmp eq i16 %20, 0
  br i1 %.not.i, label %21, label %_ZNK6icu_7713UnicodeString9getBufferEv.exit

21:                                               ; preds = %17
  %22 = and i16 %19, 2
  %.not2.i = icmp eq i16 %22, 0
  br i1 %.not2.i, label %25, label %23

23:                                               ; preds = %21
  %24 = getelementptr inbounds nuw i8, ptr %6, i64 10
  br label %_ZNK6icu_7713UnicodeString9getBufferEv.exit

25:                                               ; preds = %21
  %26 = getelementptr inbounds nuw i8, ptr %6, i64 24
  %27 = load ptr, ptr %26, align 8, !tbaa !13
  br label %_ZNK6icu_7713UnicodeString9getBufferEv.exit

_ZNK6icu_7713UnicodeString9getBufferEv.exit:      ; preds = %17, %23, %25
  %.0.i = phi ptr [ %24, %23 ], [ %27, %25 ], [ null, %17 ]
  %28 = getelementptr inbounds nuw i8, ptr %2, i64 40
  %29 = load ptr, ptr %28, align 8, !tbaa !14
  %30 = invoke ptr @ures_openU_77(ptr noundef %.0.i, ptr noundef %29, ptr noundef nonnull %3)
          to label %31 unwind label %33

31:                                               ; preds = %_ZNK6icu_7713UnicodeString9getBufferEv.exit
  %32 = getelementptr inbounds nuw i8, ptr %0, i64 8
  store ptr %30, ptr %32, align 8, !tbaa !18
  call void @_ZN6icu_7713UnicodeStringD1Ev(ptr noundef nonnull align 8 dereferenceable(64) %6) #4
  call void @llvm.lifetime.end.p0(i64 64, ptr nonnull %6) #4
  br label %35

33:                                               ; preds = %15, %_ZNK6icu_7713UnicodeString9getBufferEv.exit
  %34 = landingpad { ptr, i32 }
          cleanup
  call void @_ZN6icu_7713UnicodeStringD1Ev(ptr noundef nonnull align 8 dereferenceable(64) %6) #4
  call void @llvm.lifetime.end.p0(i64 64, ptr nonnull %6) #4
  resume { ptr, i32 } %34

35:                                               ; preds = %31, %10
  ret void
}